CCS PCM C Compiler, Version 5.112, 43599               07-Thg11-23 13:28

               Filename:   D:\baitapvixuly\bai2\code\main.lst

               ROM used:   221 words (3%)
                           Largest free fragment is 2048
               RAM used:   13 (4%) at main() level
                           29 (8%) worst case
               Stack used: 1 locations (0 in main + 1 for interrupts)
               Stack size: 8

*
0000:  MOVLW  00
0001:  MOVWF  0A
0002:  GOTO   0BA
0003:  NOP
0004:  MOVWF  7F
0005:  SWAPF  03,W
0006:  CLRF   03
0007:  MOVWF  21
0008:  MOVF   0A,W
0009:  MOVWF  20
000A:  CLRF   0A
000B:  MOVF   04,W
000C:  MOVWF  22
000D:  MOVF   77,W
000E:  MOVWF  23
000F:  MOVF   78,W
0010:  MOVWF  24
0011:  MOVF   79,W
0012:  MOVWF  25
0013:  MOVF   7A,W
0014:  MOVWF  26
0015:  BCF    03.7
0016:  BCF    03.5
0017:  MOVLW  8C
0018:  MOVWF  04
0019:  BTFSS  00.0
001A:  GOTO   01D
001B:  BTFSC  0C.0
001C:  GOTO   02E
001D:  MOVF   22,W
001E:  MOVWF  04
001F:  MOVF   23,W
0020:  MOVWF  77
0021:  MOVF   24,W
0022:  MOVWF  78
0023:  MOVF   25,W
0024:  MOVWF  79
0025:  MOVF   26,W
0026:  MOVWF  7A
0027:  MOVF   20,W
0028:  MOVWF  0A
0029:  SWAPF  21,W
002A:  MOVWF  03
002B:  SWAPF  7F,F
002C:  SWAPF  7F,W
002D:  RETFIE
002E:  BCF    0A.3
002F:  BCF    0A.4
0030:  GOTO   031
.................... #include "D:\baitapvixuly\bai2\code\main.h"
.................... #include <16F877A.h>
.................... //////////// Standard Header file for the PIC16F877A device ////////////////
.................... ///////////////////////////////////////////////////////////////////////////
.................... ////        (C) Copyright 1996, 2020 Custom Computer Services          ////
.................... //// This source code may only be used by licensed users of the CCS C  ////
.................... //// compiler.  This source code may only be distributed to other      ////
.................... //// licensed users of the CCS C compiler.  No other use, reproduction ////
.................... //// or distribution is permitted without written permission.          ////
.................... //// Derivative programs created using this software in object code    ////
.................... //// form are not restricted in any way.                               ////
.................... ///////////////////////////////////////////////////////////////////////////
.................... #device PIC16F877A
*
0080:  MOVLW  10
0081:  MOVWF  37
0082:  CLRF   77
0083:  CLRF   7A
0084:  RRF    34,F
0085:  RRF    33,F
0086:  BTFSS  03.0
0087:  GOTO   08E
0088:  MOVF   35,W
0089:  ADDWF  77,F
008A:  BTFSC  03.0
008B:  INCF   7A,F
008C:  MOVF   36,W
008D:  ADDWF  7A,F
008E:  RRF    7A,F
008F:  RRF    77,F
0090:  RRF    79,F
0091:  RRF    78,F
0092:  DECFSZ 37,F
0093:  GOTO   084
.................... 
.................... #list
.................... 
.................... #device adc=8
.................... 
.................... #FUSES NOWDT                    //No Watch Dog Timer
.................... #FUSES HS                       //High speed Osc (> 4mhz for PCM/PCH) (>10mhz for PCD)
.................... #FUSES NOPUT                    //No Power Up Timer
.................... #FUSES NOPROTECT                //Code not protected from reading
.................... #FUSES NODEBUG                  //No Debug mode for ICD
.................... #FUSES NOBROWNOUT               //No brownout reset
.................... #FUSES NOLVP                    //No low voltage prgming, B3(PIC16) or B5(PIC18) used for I/O
.................... #FUSES NOCPD                    //No EE protection
.................... #FUSES NOWRT                    //Program memory not write protected
.................... #FUSES RESERVED                 //Used to set the reserved FUSE bits
.................... 
.................... #use delay(clock=20000000)
*
0042:  MOVLW  34
0043:  MOVWF  04
0044:  BCF    03.7
0045:  MOVF   00,W
0046:  BTFSC  03.2
0047:  GOTO   055
0048:  MOVLW  06
0049:  MOVWF  78
004A:  CLRF   77
004B:  DECFSZ 77,F
004C:  GOTO   04B
004D:  DECFSZ 78,F
004E:  GOTO   04A
004F:  MOVLW  7B
0050:  MOVWF  77
0051:  DECFSZ 77,F
0052:  GOTO   051
0053:  DECFSZ 00,F
0054:  GOTO   048
0055:  RETURN
.................... 
.................... 
.................... 
.................... #int_TIMER1
.................... void TIMER1_isr(void){
....................    set_timer1(34285); 
*
0031:  CLRF   0E
0032:  MOVLW  85
0033:  MOVWF  0F
0034:  MOVLW  ED
0035:  MOVWF  0E
0036:  NOP
....................     output_toggle(pin_C0);
0037:  BCF    27.0
0038:  MOVF   27,W
0039:  BSF    03.5
003A:  MOVWF  07
003B:  MOVLW  01
003C:  BCF    03.5
003D:  XORWF  07,F
003E:  BCF    0C.0
003F:  BCF    0A.3
0040:  BCF    0A.4
0041:  GOTO   01D
.................... }
.................... void bai1(void)
.................... {
....................    int i;
....................    unsigned int8 a[8]={0x01,0x02,0x04,0x08,0x10,0x20,0x40,0x80};
*
0056:  MOVLW  01
0057:  MOVWF  29
0058:  MOVLW  02
0059:  MOVWF  2A
005A:  MOVLW  04
005B:  MOVWF  2B
005C:  MOVLW  08
005D:  MOVWF  2C
005E:  MOVLW  10
005F:  MOVWF  2D
0060:  MOVLW  20
0061:  MOVWF  2E
0062:  MOVLW  40
0063:  MOVWF  2F
0064:  MOVLW  80
0065:  MOVWF  30
....................    for(i=0;i<=7;i++){
0066:  CLRF   28
0067:  MOVF   28,W
0068:  SUBLW  07
0069:  BTFSS  03.0
006A:  GOTO   0A7
....................       OUTPUT_B(a[i]);
006B:  MOVLW  29
006C:  ADDWF  28,W
006D:  MOVWF  04
006E:  BCF    03.7
006F:  MOVF   00,W
0070:  MOVWF  31
0071:  BSF    03.5
0072:  CLRF   06
0073:  BCF    03.5
0074:  MOVF   31,W
0075:  MOVWF  06
....................       delay_ms((i+1)*1000);
0076:  MOVLW  01
0077:  ADDWF  28,W
0078:  MOVWF  32
0079:  CLRF   34
007A:  MOVF   32,W
007B:  MOVWF  33
007C:  MOVLW  03
007D:  MOVWF  36
007E:  MOVLW  E8
007F:  MOVWF  35
*
0094:  MOVF   79,W
0095:  MOVWF  32
0096:  MOVF   78,W
0097:  MOVWF  31
0098:  MOVF   79,W
0099:  MOVWF  33
009A:  INCF   33,F
009B:  DECF   33,F
009C:  BTFSC  03.2
009D:  GOTO   0A2
009E:  MOVLW  FF
009F:  MOVWF  34
00A0:  CALL   042
00A1:  GOTO   09B
00A2:  MOVF   31,W
00A3:  MOVWF  34
00A4:  CALL   042
00A5:  INCF   28,F
00A6:  GOTO   067
....................    }
....................    OUTPUT_B(0xFF);
00A7:  BSF    03.5
00A8:  CLRF   06
00A9:  MOVLW  FF
00AA:  BCF    03.5
00AB:  MOVWF  06
....................    delay_ms(3000);
00AC:  MOVLW  0C
00AD:  MOVWF  31
00AE:  MOVLW  FA
00AF:  MOVWF  34
00B0:  CALL   042
00B1:  DECFSZ 31,F
00B2:  GOTO   0AE
....................    OUTPUT_B(0x00);
00B3:  BSF    03.5
00B4:  CLRF   06
00B5:  BCF    03.5
00B6:  CLRF   06
00B7:  BCF    0A.3
00B8:  BCF    0A.4
00B9:  GOTO   0DB (RETURN)
.................... }
.................... void main()
00BA:  MOVF   03,W
00BB:  ANDLW  1F
00BC:  MOVWF  03
00BD:  MOVLW  FF
00BE:  MOVWF  27
00BF:  BSF    03.5
00C0:  BSF    1F.0
00C1:  BSF    1F.1
00C2:  BSF    1F.2
00C3:  BCF    1F.3
00C4:  MOVLW  07
00C5:  MOVWF  1C
00C6:  BCF    03.7
.................... {
....................    output_drive(pin_C0);
00C7:  BCF    03.5
00C8:  BCF    27.0
00C9:  MOVF   27,W
00CA:  BSF    03.5
00CB:  MOVWF  07
....................    setup_timer_1(T1_inTERNAL|T1_DIV_BY_8);  
00CC:  MOVLW  B5
00CD:  BCF    03.5
00CE:  MOVWF  10
....................     set_timer1(34285); 
00CF:  CLRF   0E
00D0:  MOVLW  85
00D1:  MOVWF  0F
00D2:  MOVLW  ED
00D3:  MOVWF  0E
00D4:  NOP
....................    enable_interrupts(INT_TIMER1);
00D5:  BSF    03.5
00D6:  BSF    0C.0
....................    enable_interrupts(GLOBAL);
00D7:  MOVLW  C0
00D8:  BCF    03.5
00D9:  IORWF  0B,F
....................    while(true){
....................          bai1();
00DA:  GOTO   056
00DB:  GOTO   0DA
....................       }
.................... }
.................... 
00DC:  SLEEP
.................... 
.................... 

Configuration Fuses:
   Word  1: 3F3A   HS NOWDT NOPUT NOBROWNOUT NOLVP NOCPD NOWRT NODEBUG NOPROTECT
