CCS PCM C Compiler, Version 5.112, 43599               07-Thg11-23 17:01

               Filename:   D:\baitapvixuly\baitn\main.lst

               ROM used:   192 words (2%)
                           Largest free fragment is 2048
               RAM used:   15 (4%) at main() level
                           17 (5%) worst case
               Stack used: 1 locations (0 in main + 1 for interrupts)
               Stack size: 8

*
0000:  MOVLW  00
0001:  MOVWF  0A
0002:  GOTO   072
0003:  NOP
0004:  MOVWF  7F
0005:  SWAPF  03,W
0006:  CLRF   03
0007:  MOVWF  21
0008:  MOVF   0A,W
0009:  MOVWF  20
000A:  CLRF   0A
000B:  MOVF   04,W
000C:  MOVWF  22
000D:  MOVF   77,W
000E:  MOVWF  23
000F:  MOVF   78,W
0010:  MOVWF  24
0011:  MOVF   79,W
0012:  MOVWF  25
0013:  MOVF   7A,W
0014:  MOVWF  26
0015:  BCF    03.7
0016:  BCF    03.5
0017:  MOVLW  8C
0018:  MOVWF  04
0019:  BTFSS  00.0
001A:  GOTO   01D
001B:  BTFSC  0C.0
001C:  GOTO   032
001D:  BTFSS  0B.5
001E:  GOTO   021
001F:  BTFSC  0B.2
0020:  GOTO   035
0021:  MOVF   22,W
0022:  MOVWF  04
0023:  MOVF   23,W
0024:  MOVWF  77
0025:  MOVF   24,W
0026:  MOVWF  78
0027:  MOVF   25,W
0028:  MOVWF  79
0029:  MOVF   26,W
002A:  MOVWF  7A
002B:  MOVF   20,W
002C:  MOVWF  0A
002D:  SWAPF  21,W
002E:  MOVWF  03
002F:  SWAPF  7F,F
0030:  SWAPF  7F,W
0031:  RETFIE
0032:  BCF    0A.3
0033:  BCF    0A.4
0034:  GOTO   04C
0035:  BCF    0A.3
0036:  BCF    0A.4
0037:  GOTO   05E
.................... #include <main.h>
.................... #include <16F877A.h>
.................... //////////// Standard Header file for the PIC16F877A device ////////////////
.................... ///////////////////////////////////////////////////////////////////////////
.................... ////        (C) Copyright 1996, 2020 Custom Computer Services          ////
.................... //// This source code may only be used by licensed users of the CCS C  ////
.................... //// compiler.  This source code may only be distributed to other      ////
.................... //// licensed users of the CCS C compiler.  No other use, reproduction ////
.................... //// or distribution is permitted without written permission.          ////
.................... //// Derivative programs created using this software in object code    ////
.................... //// form are not restricted in any way.                               ////
.................... ///////////////////////////////////////////////////////////////////////////
.................... #device PIC16F877A
.................... 
.................... #list
.................... 
.................... #device ADC=10
.................... #use delay(crystal=5000000)
0038:  MOVLW  2B
0039:  MOVWF  04
003A:  BCF    03.7
003B:  MOVF   00,W
003C:  BTFSC  03.2
003D:  GOTO   04B
003E:  MOVLW  01
003F:  MOVWF  78
0040:  CLRF   77
0041:  DECFSZ 77,F
0042:  GOTO   041
0043:  DECFSZ 78,F
0044:  GOTO   040
0045:  MOVLW  9E
0046:  MOVWF  77
0047:  DECFSZ 77,F
0048:  GOTO   047
0049:  DECFSZ 00,F
004A:  GOTO   03E
004B:  RETURN
.................... 
.................... 
.................... #int_TIMER1
.................... void TIMER1_isr(void){
....................    set_timer1(40535); 
004C:  CLRF   0E
004D:  MOVLW  9E
004E:  MOVWF  0F
004F:  MOVLW  57
0050:  MOVWF  0E
0051:  NOP
....................     output_toggle(pin_B0);
0052:  BSF    03.5
0053:  BCF    06.0
0054:  MOVLW  01
0055:  BCF    03.5
0056:  XORWF  06,F
....................     delay_ms(2); 
0057:  MOVLW  02
0058:  MOVWF  2B
0059:  CALL   038
.................... }
005A:  BCF    0C.0
005B:  BCF    0A.3
005C:  BCF    0A.4
005D:  GOTO   021
.................... #int_TIMER0
.................... void TIMER0_isr(void){
....................   
....................     output_bit(pin_B2,input(pin_b0)||input(pin_b1));
005E:  BSF    03.5
005F:  BSF    06.0
0060:  BCF    03.5
0061:  BTFSC  06.0
0062:  GOTO   06A
0063:  BSF    03.5
0064:  BSF    06.1
0065:  BCF    03.5
0066:  BTFSC  06.1
0067:  GOTO   06A
0068:  BCF    06.2
0069:  GOTO   06B
006A:  BSF    06.2
006B:  BSF    03.5
006C:  BCF    06.2
006D:  BCF    03.5
006E:  BCF    0B.2
006F:  BCF    0A.3
0070:  BCF    0A.4
0071:  GOTO   021
.................... }
.................... void main()
0072:  MOVF   03,W
0073:  ANDLW  1F
0074:  MOVWF  03
0075:  BSF    03.5
0076:  BSF    1F.0
0077:  BSF    1F.1
0078:  BSF    1F.2
0079:  BCF    1F.3
007A:  MOVLW  07
007B:  MOVWF  1C
007C:  BCF    03.7
.................... {
....................   
....................    setup_timer_1(T1_inTERNAL|T1_DIV_BY_8);  
007D:  MOVLW  B5
007E:  BCF    03.5
007F:  MOVWF  10
....................     set_timer1(40535); 
0080:  CLRF   0E
0081:  MOVLW  9E
0082:  MOVWF  0F
0083:  MOVLW  57
0084:  MOVWF  0E
0085:  NOP
....................     
....................    enable_interrupts(INT_TIMER1);
0086:  BSF    03.5
0087:  BSF    0C.0
....................    enable_interrupts(GLOBAL);
0088:  MOVLW  C0
0089:  BCF    03.5
008A:  IORWF  0B,F
....................    setup_timer_0(RTCC_INTERNAL|RTCC_DIV_1);
008B:  BSF    03.5
008C:  MOVF   01,W
008D:  ANDLW  C7
008E:  IORLW  08
008F:  MOVWF  01
....................    set_timer0(0);
0090:  BCF    03.5
0091:  CLRF   01
....................      enable_interrupts(INT_TIMER0);
0092:  BSF    0B.5
....................    enable_interrupts(GLOBAL);
0093:  MOVLW  C0
0094:  IORWF  0B,F
....................    while(TRUE)
....................    {
....................       for(int i = 0;i<2;i++)
0095:  CLRF   28
0096:  MOVF   28,W
0097:  SUBLW  01
0098:  BTFSS  03.0
0099:  GOTO   0BE
....................          {
....................             OUTPUT_HIGH(pin_b1);
009A:  BSF    03.5
009B:  BCF    06.1
009C:  BCF    03.5
009D:  BSF    06.1
....................             delay_ms(i*2+2);
009E:  BCF    03.0
009F:  RLF    28,W
00A0:  ADDLW  02
00A1:  MOVWF  29
00A2:  CLRF   27
00A3:  BTFSC  0B.7
00A4:  BSF    27.7
00A5:  BCF    0B.7
00A6:  MOVF   29,W
00A7:  MOVWF  2B
00A8:  CALL   038
00A9:  BTFSC  27.7
00AA:  BSF    0B.7
....................             OUTPUT_LOW(pin_b1);
00AB:  BSF    03.5
00AC:  BCF    06.1
00AD:  BCF    03.5
00AE:  BCF    06.1
....................             delay_ms(i*2+1);
00AF:  BCF    03.0
00B0:  RLF    28,W
00B1:  ADDLW  01
00B2:  MOVWF  29
00B3:  CLRF   27
00B4:  BTFSC  0B.7
00B5:  BSF    27.7
00B6:  BCF    0B.7
00B7:  MOVF   29,W
00B8:  MOVWF  2B
00B9:  CALL   038
00BA:  BTFSC  27.7
00BB:  BSF    0B.7
00BC:  INCF   28,F
00BD:  GOTO   096
....................              }
00BE:  GOTO   095
....................          }
.................... }
00BF:  SLEEP

Configuration Fuses:
   Word  1: 3F72   HS NOWDT PUT BROWNOUT NOLVP NOCPD NOWRT NODEBUG NOPROTECT
