CCS PCM C Compiler, Version 5.112, 43599               19-Thg11-23 10:44

               Filename:   D:\baitapvixuly\test\a\main.lst

               ROM used:   334 words (4%)
                           Largest free fragment is 2048
               RAM used:   14 (4%) at main() level
                           23 (6%) worst case
               Stack used: 2 locations (1 in main + 1 for interrupts)
               Stack size: 8

*
0000:  MOVLW  01
0001:  MOVWF  0A
0002:  GOTO   12E
0003:  NOP
0004:  MOVWF  7F
0005:  SWAPF  03,W
0006:  CLRF   03
0007:  MOVWF  21
0008:  MOVF   0A,W
0009:  MOVWF  20
000A:  CLRF   0A
000B:  MOVF   04,W
000C:  MOVWF  22
000D:  MOVF   77,W
000E:  MOVWF  23
000F:  MOVF   78,W
0010:  MOVWF  24
0011:  MOVF   79,W
0012:  MOVWF  25
0013:  MOVF   7A,W
0014:  MOVWF  26
0015:  BCF    03.7
0016:  BCF    03.5
0017:  BTFSS  0B.5
0018:  GOTO   01B
0019:  BTFSC  0B.2
001A:  GOTO   02C
001B:  MOVF   22,W
001C:  MOVWF  04
001D:  MOVF   23,W
001E:  MOVWF  77
001F:  MOVF   24,W
0020:  MOVWF  78
0021:  MOVF   25,W
0022:  MOVWF  79
0023:  MOVF   26,W
0024:  MOVWF  7A
0025:  MOVF   20,W
0026:  MOVWF  0A
0027:  SWAPF  21,W
0028:  MOVWF  03
0029:  SWAPF  7F,F
002A:  SWAPF  7F,W
002B:  RETFIE
002C:  BCF    0A.3
002D:  BCF    0A.4
002E:  GOTO   02F
.................... #include <main.h>
.................... #include <16F877A.h>
.................... //////////// Standard Header file for the PIC16F877A device ////////////////
.................... ///////////////////////////////////////////////////////////////////////////
.................... ////        (C) Copyright 1996, 2020 Custom Computer Services          ////
.................... //// This source code may only be used by licensed users of the CCS C  ////
.................... //// compiler.  This source code may only be distributed to other      ////
.................... //// licensed users of the CCS C compiler.  No other use, reproduction ////
.................... //// or distribution is permitted without written permission.          ////
.................... //// Derivative programs created using this software in object code    ////
.................... //// form are not restricted in any way.                               ////
.................... ///////////////////////////////////////////////////////////////////////////
.................... #device PIC16F877A
*
004B:  MOVF   30,W
004C:  CLRF   78
004D:  SUBWF  2F,W
004E:  BTFSC  03.0
004F:  GOTO   053
0050:  MOVF   2F,W
0051:  MOVWF  77
0052:  GOTO   05F
0053:  CLRF   77
0054:  MOVLW  08
0055:  MOVWF  31
0056:  RLF    2F,F
0057:  RLF    77,F
0058:  MOVF   30,W
0059:  SUBWF  77,W
005A:  BTFSC  03.0
005B:  MOVWF  77
005C:  RLF    78,F
005D:  DECFSZ 31,F
005E:  GOTO   056
005F:  RETURN
.................... 
.................... #list
.................... 
.................... #device ADC=10
.................... #use delay(crystal=20000000)
*
00A1:  MOVLW  2F
00A2:  MOVWF  04
00A3:  BCF    03.7
00A4:  MOVF   00,W
00A5:  BTFSC  03.2
00A6:  GOTO   0B4
00A7:  MOVLW  06
00A8:  MOVWF  78
00A9:  CLRF   77
00AA:  DECFSZ 77,F
00AB:  GOTO   0AA
00AC:  DECFSZ 78,F
00AD:  GOTO   0A9
00AE:  MOVLW  7B
00AF:  MOVWF  77
00B0:  DECFSZ 77,F
00B1:  GOTO   0B0
00B2:  DECFSZ 00,F
00B3:  GOTO   0A7
00B4:  RETURN
.................... 
.................... 
.................... 
.................... unsigned int8 n = 2;
.................... 
.................... #int_timer0
.................... void Ngat_timer0(void) {
....................     set_timer0(100);
*
002F:  MOVLW  64
0030:  MOVWF  01
.................... 
....................     if (!input(PIN_D0)) {
0031:  BSF    03.5
0032:  BSF    08.0
0033:  BCF    03.5
0034:  BTFSC  08.0
0035:  GOTO   03C
....................         while (!input(PIN_D0)) {
0036:  BSF    03.5
0037:  BSF    08.0
0038:  BCF    03.5
0039:  BTFSS  08.0
003A:  GOTO   036
....................             // Ð?i nút D0 du?c th? ra
....................         }
....................         n++;
003B:  INCF   27,F
....................     }
.................... 
....................     if (!input(PIN_D1)) {
003C:  BSF    03.5
003D:  BSF    08.1
003E:  BCF    03.5
003F:  BTFSC  08.1
0040:  GOTO   047
....................         while (!input(PIN_D1)) {
0041:  BSF    03.5
0042:  BSF    08.1
0043:  BCF    03.5
0044:  BTFSS  08.1
0045:  GOTO   041
....................             // Ð?i nút D1 du?c th? ra
....................         }
....................         n--;
0046:  DECF   27,F
....................     }
.................... 
....................     if (n > 999) {
....................         n = 0;
....................     }
0047:  BCF    0B.2
0048:  BCF    0A.3
0049:  BCF    0A.4
004A:  GOTO   01B
.................... }
.................... 
.................... unsigned int seg(unsigned int num) {
....................     switch (num) {
*
0060:  MOVF   2E,W
0061:  XORLW  00
0062:  BTFSC  03.2
0063:  GOTO   080
0064:  XORLW  01
0065:  BTFSC  03.2
0066:  GOTO   083
0067:  XORLW  03
0068:  BTFSC  03.2
0069:  GOTO   086
006A:  XORLW  01
006B:  BTFSC  03.2
006C:  GOTO   089
006D:  XORLW  07
006E:  BTFSC  03.2
006F:  GOTO   08C
0070:  XORLW  01
0071:  BTFSC  03.2
0072:  GOTO   08F
0073:  XORLW  03
0074:  BTFSC  03.2
0075:  GOTO   092
0076:  XORLW  01
0077:  BTFSC  03.2
0078:  GOTO   095
0079:  XORLW  0F
007A:  BTFSC  03.2
007B:  GOTO   098
007C:  XORLW  01
007D:  BTFSC  03.2
007E:  GOTO   09B
007F:  GOTO   09E
....................     case 0:
....................         return 0xC0;
0080:  MOVLW  C0
0081:  MOVWF  78
0082:  GOTO   0A0
....................     case 1:
....................         return 0xF9;
0083:  MOVLW  F9
0084:  MOVWF  78
0085:  GOTO   0A0
....................     case 2:
....................         return 0xA4;
0086:  MOVLW  A4
0087:  MOVWF  78
0088:  GOTO   0A0
....................     case 3:
....................         return 0xB0;
0089:  MOVLW  B0
008A:  MOVWF  78
008B:  GOTO   0A0
....................     case 4:
....................         return 0x99;
008C:  MOVLW  99
008D:  MOVWF  78
008E:  GOTO   0A0
....................     case 5:
....................         return 0x92;
008F:  MOVLW  92
0090:  MOVWF  78
0091:  GOTO   0A0
....................     case 6:
....................         return 0x82;
0092:  MOVLW  82
0093:  MOVWF  78
0094:  GOTO   0A0
....................     case 7:
....................         return 0xF8;
0095:  MOVLW  F8
0096:  MOVWF  78
0097:  GOTO   0A0
....................     case 8:
....................         return 0x80;
0098:  MOVLW  80
0099:  MOVWF  78
009A:  GOTO   0A0
....................     case 9:
....................         return 0x90;
009B:  MOVLW  90
009C:  MOVWF  78
009D:  GOTO   0A0
....................     default:
....................         return 0xFF; // Giá tr? m?c d?nh, có th? thay d?i tùy thu?c vào yêu c?u c? th?
009E:  MOVLW  FF
009F:  MOVWF  78
....................     }
00A0:  RETURN
.................... }
.................... 
.................... void hienso(unsigned int so) {
....................     unsigned int digit, digit1, digit10, digit100;
.................... 
....................     output_c(0x04);
*
00B5:  MOVLW  00
00B6:  MOVWF  28
00B7:  BSF    03.5
00B8:  CLRF   07
00B9:  MOVLW  04
00BA:  BCF    03.5
00BB:  MOVWF  07
....................     digit = so % 10;
00BC:  MOVF   29,W
00BD:  MOVWF  2F
00BE:  MOVLW  0A
00BF:  MOVWF  30
00C0:  CALL   04B
00C1:  MOVF   77,W
00C2:  MOVWF  2A
....................     digit1 = seg(digit);
00C3:  MOVF   2A,W
00C4:  MOVWF  2E
00C5:  CALL   060
00C6:  MOVF   78,W
00C7:  MOVWF  2B
....................     output_b(0x0f);
00C8:  BSF    03.5
00C9:  CLRF   06
00CA:  MOVLW  0F
00CB:  BCF    03.5
00CC:  MOVWF  06
....................     output_b(digit1);
00CD:  BSF    03.5
00CE:  CLRF   06
00CF:  BCF    03.5
00D0:  MOVF   2B,W
00D1:  MOVWF  06
....................     delay_ms(1000);
00D2:  MOVLW  04
00D3:  MOVWF  2E
00D4:  MOVLW  FA
00D5:  MOVWF  2F
00D6:  CALL   0A1
00D7:  DECFSZ 2E,F
00D8:  GOTO   0D4
....................     output_c(0x02);
00D9:  MOVLW  00
00DA:  MOVWF  28
00DB:  BSF    03.5
00DC:  CLRF   07
00DD:  MOVLW  02
00DE:  BCF    03.5
00DF:  MOVWF  07
....................     digit = (so / 10) % 10;
00E0:  MOVF   29,W
00E1:  MOVWF  2F
00E2:  MOVLW  0A
00E3:  MOVWF  30
00E4:  CALL   04B
00E5:  MOVF   78,W
00E6:  MOVWF  2F
00E7:  MOVLW  0A
00E8:  MOVWF  30
00E9:  CALL   04B
00EA:  MOVF   77,W
00EB:  MOVWF  2A
....................     digit10 = seg(digit);
00EC:  MOVF   2A,W
00ED:  MOVWF  2E
00EE:  CALL   060
00EF:  MOVF   78,W
00F0:  MOVWF  2C
....................     output_b(0x0f);
00F1:  BSF    03.5
00F2:  CLRF   06
00F3:  MOVLW  0F
00F4:  BCF    03.5
00F5:  MOVWF  06
....................     output_b(digit10);
00F6:  BSF    03.5
00F7:  CLRF   06
00F8:  BCF    03.5
00F9:  MOVF   2C,W
00FA:  MOVWF  06
....................     delay_ms(1000);
00FB:  MOVLW  04
00FC:  MOVWF  2E
00FD:  MOVLW  FA
00FE:  MOVWF  2F
00FF:  CALL   0A1
0100:  DECFSZ 2E,F
0101:  GOTO   0FD
....................     output_c(0x01);
0102:  MOVLW  00
0103:  MOVWF  28
0104:  BSF    03.5
0105:  CLRF   07
0106:  MOVLW  01
0107:  BCF    03.5
0108:  MOVWF  07
....................     digit = (so / 100) % 10;
0109:  MOVF   29,W
010A:  MOVWF  2F
010B:  MOVLW  64
010C:  MOVWF  30
010D:  CALL   04B
010E:  MOVF   78,W
010F:  MOVWF  2F
0110:  MOVLW  0A
0111:  MOVWF  30
0112:  CALL   04B
0113:  MOVF   77,W
0114:  MOVWF  2A
....................     digit100 = seg(digit);
0115:  MOVF   2A,W
0116:  MOVWF  2E
0117:  CALL   060
0118:  MOVF   78,W
0119:  MOVWF  2D
....................      output_b(0x0f);
011A:  BSF    03.5
011B:  CLRF   06
011C:  MOVLW  0F
011D:  BCF    03.5
011E:  MOVWF  06
....................     output_b(digit100);
011F:  BSF    03.5
0120:  CLRF   06
0121:  BCF    03.5
0122:  MOVF   2D,W
0123:  MOVWF  06
....................     delay_ms(1000);
0124:  MOVLW  04
0125:  MOVWF  2E
0126:  MOVLW  FA
0127:  MOVWF  2F
0128:  CALL   0A1
0129:  DECFSZ 2E,F
012A:  GOTO   126
012B:  BCF    0A.3
012C:  BCF    0A.4
012D:  GOTO   14C (RETURN)
.................... }
.................... 
.................... void main() {
012E:  MOVF   03,W
012F:  ANDLW  1F
0130:  MOVWF  03
0131:  MOVLW  02
0132:  MOVWF  27
0133:  MOVLW  FF
0134:  MOVWF  28
0135:  BSF    03.5
0136:  BSF    1F.0
0137:  BSF    1F.1
0138:  BSF    1F.2
0139:  BCF    1F.3
013A:  MOVLW  07
013B:  MOVWF  1C
013C:  BCF    03.7
....................     set_tris_D(0xff);
013D:  MOVLW  FF
013E:  MOVWF  08
....................     setup_timer_0(RTCC_INTERNAL | RTCC_DIV_4);
013F:  MOVF   01,W
0140:  ANDLW  C0
0141:  IORLW  01
0142:  MOVWF  01
....................     set_timer0(100);
0143:  MOVLW  64
0144:  BCF    03.5
0145:  MOVWF  01
....................     enable_interrupts(int_timer0);
0146:  BSF    0B.5
....................     enable_interrupts(global);
0147:  MOVLW  C0
0148:  IORWF  0B,F
.................... 
....................     while (TRUE) {
....................         hienso(n);
0149:  MOVF   27,W
014A:  MOVWF  29
014B:  GOTO   0B5
014C:  GOTO   149
....................     }
.................... }
.................... 
014D:  SLEEP

Configuration Fuses:
   Word  1: 3F72   HS NOWDT PUT BROWNOUT NOLVP NOCPD NOWRT NODEBUG NOPROTECT
